; Function Attrs: mustprogress nounwind uwtable
define hidden void @_ZN25InterpreterMacroAssembler19get_method_countersE8RegisterS0_R5Label(ptr noundef nonnull align 8 dereferenceable(48) %0, i32 %1, i32 %2, ptr noundef nonnull align 8 dereferenceable(33) %3) local_unnamed_addr #0 align 2 {
  %5 = alloca %class.Label, align 8
  %6 = alloca %class.Address, align 8
  %7 = alloca %class.Address, align 8
  store i32 -1, ptr %5, align 8
  %8 = getelementptr inbounds i8, ptr %5, i64 20
  store i32 0, ptr %8, align 4
  %9 = getelementptr inbounds i8, ptr %5, i64 24
  store ptr null, ptr %9, align 8
  %10 = getelementptr inbounds i8, ptr %5, i64 32
  store i8 0, ptr %10, align 8
  store i32 %1, ptr %6, align 8
  %11 = getelementptr inbounds i8, ptr %6, i64 4
  store <4 x i32> <i32 -1, i32 -1, i32 -1, i32 24>, ptr %11, align 4
  %12 = getelementptr inbounds i8, ptr %6, i64 20
  store i8 0, ptr %12, align 4
  %13 = getelementptr inbounds i8, ptr %6, i64 24
  store ptr getelementptr inbounds inrange(-16, 72) (i8, ptr @_ZTV10Relocation, i64 16), ptr %13, align 8
  %14 = getelementptr inbounds i8, ptr %6, i64 32
  store ptr null, ptr %14, align 8
  %15 = getelementptr inbounds i8, ptr %6, i64 40
  store i32 0, ptr %15, align 8
  call void @_ZN14MacroAssembler6movptrE8Register7Address(ptr noundef nonnull align 8 dereferenceable(40) %0, i32 %2, ptr noundef nonnull %6) #8
  call void @_ZN14MacroAssembler7testptrE8RegisterS0_(ptr noundef nonnull align 8 dereferenceable(40) %0, i32 %2, i32 %2) #8
  call void @_ZN9Assembler3jccENS_9ConditionER5Labelb(ptr noundef nonnull align 8 dereferenceable(40) %0, i32 noundef 5, ptr noundef nonnull align 8 dereferenceable(33) %5, i1 noundef zeroext true) #8
  call void @_ZN14MacroAssembler7call_VME8RegisterPhS0_b(ptr noundef nonnull align 8 dereferenceable(40) %0, i32 -1, ptr noundef nonnull @_ZN18InterpreterRuntime21build_method_countersEP10JavaThreadP6Method, i32 %1, i1 noundef zeroext true) #8
  store i32 %1, ptr %7, align 8
  %16 = getelementptr inbounds i8, ptr %7, i64 4
  store <4 x i32> <i32 -1, i32 -1, i32 -1, i32 24>, ptr %16, align 4
  %17 = getelementptr inbounds i8, ptr %7, i64 20
  store i8 0, ptr %17, align 4
  %18 = getelementptr inbounds i8, ptr %7, i64 24
  store ptr getelementptr inbounds inrange(-16, 72) (i8, ptr @_ZTV10Relocation, i64 16), ptr %18, align 8
  %19 = getelementptr inbounds i8, ptr %7, i64 32
  store ptr null, ptr %19, align 8
  %20 = getelementptr inbounds i8, ptr %7, i64 40
  store i32 0, ptr %20, align 8
  call void @_ZN14MacroAssembler6movptrE8Register7Address(ptr noundef nonnull align 8 dereferenceable(40) %0, i32 %2, ptr noundef nonnull %7) #8
  call void @_ZN14MacroAssembler7testptrE8RegisterS0_(ptr noundef nonnull align 8 dereferenceable(40) %0, i32 %2, i32 %2) #8
  call void @_ZN9Assembler3jccENS_9ConditionER5Labelb(ptr noundef nonnull align 8 dereferenceable(40) %0, i32 noundef 4, ptr noundef nonnull align 8 dereferenceable(33) %3, i1 noundef zeroext true) #8
  call void @_ZN17AbstractAssembler4bindER5Label(ptr noundef nonnull align 8 dereferenceable(24) %0, ptr noundef nonnull align 8 dereferenceable(33) %5) #8
  ret void
}